; ModuleID = 'source-C-CXX/27/208.c'
source_filename = "source-C-CXX/27/208.c"
target datalayout = "e-m:e-p270:32:32-p271:32:32-p272:64:64-i64:64-f80:128-n8:16:32:64-S128"
target triple = "x86_64-pc-linux-gnu"

@.str = private unnamed_addr constant [3 x i8] c"%d\00", align 1
@.str.1 = private unnamed_addr constant [4 x i8] c",%d\00", align 1

; Function Attrs: nounwind sspstrong uwtable
define dso_local void @main() local_unnamed_addr #0 {
  %1 = alloca [3000 x i8], align 16
  %2 = alloca [300 x i32], align 16
  %3 = bitcast [300 x i32]* %2 to i8*
  %4 = getelementptr inbounds [3000 x i8], [3000 x i8]* %1, i64 0, i64 0
  call void @llvm.lifetime.start.p0i8(i64 3000, i8* nonnull %4) #5
  call void @llvm.lifetime.start.p0i8(i64 1200, i8* nonnull %3) #5
  %5 = call i32 (i8*, ...) bitcast (i32 (...)* @gets to i32 (i8*, ...)*)(i8* nonnull %4) #5
  call void @llvm.memset.p0i8.i64(i8* noundef nonnull align 16 dereferenceable(1200) %3, i8 0, i64 1200, i1 false)
  br label %6

6:                                                ; preds = %16, %0
  %7 = phi i64 [ %13, %16 ], [ -1, %0 ]
  %8 = phi i32 [ %18, %16 ], [ 0, %0 ]
  %9 = phi i32 [ %19, %16 ], [ undef, %0 ]
  br label %10

10:                                               ; preds = %6, %10
  %11 = phi i64 [ %13, %10 ], [ %7, %6 ]
  %12 = phi i1 [ false, %10 ], [ true, %6 ]
  %13 = add nsw i64 %11, 1
  %14 = getelementptr inbounds [3000 x i8], [3000 x i8]* %1, i64 0, i64 %13
  %15 = load i8, i8* %14, align 1, !tbaa !5
  switch i8 %15, label %16 [
    i8 0, label %24
    i8 32, label %10
  ]

16:                                               ; preds = %10
  %17 = add nsw i32 %8, 1
  %18 = select i1 %12, i32 %8, i32 %17
  %19 = select i1 %12, i32 %9, i32 %17
  %20 = sext i32 %18 to i64
  %21 = getelementptr inbounds [300 x i32], [300 x i32]* %2, i64 0, i64 %20
  %22 = load i32, i32* %21, align 4, !tbaa !8
  %23 = add nsw i32 %22, 1
  store i32 %23, i32* %21, align 4, !tbaa !8
  br label %6

24:                                               ; preds = %10
  %25 = trunc i64 %11 to i32
  %26 = icmp eq i32 %25, 0
  %27 = getelementptr inbounds [300 x i32], [300 x i32]* %2, i64 0, i64 0
  %28 = load i32, i32* %27, align 16, !tbaa !8
  %29 = call i32 (i8*, ...) @printf(i8* nonnull dereferenceable(1) getelementptr inbounds ([3 x i8], [3 x i8]* @.str, i64 0, i64 0), i32 %28)
  %30 = icmp slt i32 %9, 1
  %31 = select i1 %26, i1 true, i1 %30
  br i1 %31, label %42, label %32

32:                                               ; preds = %24
  %33 = add nuw i32 %9, 1
  %34 = zext i32 %33 to i64
  br label %35

35:                                               ; preds = %32, %35
  %36 = phi i64 [ 1, %32 ], [ %40, %35 ]
  %37 = getelementptr inbounds [300 x i32], [300 x i32]* %2, i64 0, i64 %36
  %38 = load i32, i32* %37, align 4, !tbaa !8
  %39 = call i32 (i8*, ...) @printf(i8* nonnull dereferenceable(1) getelementptr inbounds ([4 x i8], [4 x i8]* @.str.1, i64 0, i64 0), i32 %38)
  %40 = add nuw nsw i64 %36, 1
  %41 = icmp eq i64 %40, %34
  br i1 %41, label %42, label %35, !llvm.loop !10

42:                                               ; preds = %35, %24
  call void @llvm.lifetime.end.p0i8(i64 1200, i8* nonnull %3) #5
  call void @llvm.lifetime.end.p0i8(i64 3000, i8* nonnull %4) #5
  ret void
}

; Function Attrs: argmemonly mustprogress nofree nosync nounwind willreturn
declare void @llvm.lifetime.start.p0i8(i64 immarg, i8* nocapture) #1

declare i32 @gets(...) local_unnamed_addr #2

; Function Attrs: nofree nounwind
declare noundef i32 @printf(i8* nocapture noundef readonly, ...) local_unnamed_addr #3

; Function Attrs: argmemonly mustprogress nofree nosync nounwind willreturn
declare void @llvm.lifetime.end.p0i8(i64 immarg, i8* nocapture) #1

; Function Attrs: argmemonly nofree nounwind willreturn writeonly
declare void @llvm.memset.p0i8.i64(i8* nocapture writeonly, i8, i64, i1 immarg) #4


!llvm.module.flags = !{!0, !1, !2, !3}
!llvm.ident = !{!4}

!0 = !{i32 1, !"wchar_size", i32 4}
!1 = !{i32 7, !"PIC Level", i32 2}
!2 = !{i32 7, !"PIE Level", i32 2}
!3 = !{i32 7, !"uwtable", i32 1}
!4 = !{!"clang version 13.0.0"}
!5 = !{!6, !6, i64 0}
!6 = !{!"omnipotent char", !7, i64 0}
!7 = !{!"Simple C/C++ TBAA"}
!8 = !{!9, !9, i64 0}
!9 = !{!"int", !6, i64 0}
!10 = distinct !{!10, !11}
!11 = !{!"llvm.loop.mustprogress"}
